target datalayout = "e-m:e-p270:32:32-p271:32:32-p272:64:64-i64:64-i128:128-f80:128-n8:16:32:64-S128"
target triple = "x86_64-pc-linux-gnu"

%struct.formnode = type { i16, i16, i16, i32, i32, i32, i32, i16, i16, i16, i32, ptr, ptr, ptr, ptr, ptr, ptr, ptr, ptr, ptr, ptr, ptr }
%struct.fieldnode = type { i16, i16, i16, i16, i16, i32, i32, i32, i32, i16, i16, i16, i16, i32, i32, i32, i32, ptr, ptr, ptr, ptr, ptr, ptr, ptr, ptr }

; Function Attrs: nounwind uwtable
define internal i32 @Synchronize_Linked_Fields(ptr noundef %0) #0 {
  %2 = alloca i32, align 4
  %3 = alloca ptr, align 8
  %4 = alloca ptr, align 8
  %5 = alloca i32, align 4
  %6 = alloca i32, align 4
  %7 = alloca i32, align 4
  store ptr %0, ptr %3, align 8, !tbaa !17
  call void @llvm.lifetime.start.p0(i64 8, ptr %4) #9
  call void @llvm.lifetime.start.p0(i64 4, ptr %5) #9
  store i32 0, ptr %5, align 4, !tbaa !35
  call void @llvm.lifetime.start.p0(i64 4, ptr %6) #9
  %8 = load ptr, ptr %3, align 8, !tbaa !17
  %9 = icmp ne ptr %8, null
  br i1 %9, label %11, label %10

10:                                               ; preds = %1
  store i32 -2, ptr %2, align 4
  store i32 1, ptr %7, align 4
  br label %41

11:                                               ; preds = %1
  %12 = load ptr, ptr %3, align 8, !tbaa !17
  %13 = getelementptr inbounds nuw %struct.fieldnode, ptr %12, i32 0, i32 19
  %14 = load ptr, ptr %13, align 8, !tbaa !82
  %15 = icmp ne ptr %14, null
  br i1 %15, label %17, label %16

16:                                               ; preds = %11
  store i32 -1, ptr %2, align 4
  store i32 1, ptr %7, align 4
  br label %41

17:                                               ; preds = %11
  %18 = load ptr, ptr %3, align 8, !tbaa !17
  %19 = getelementptr inbounds nuw %struct.fieldnode, ptr %18, i32 0, i32 19
  %20 = load ptr, ptr %19, align 8, !tbaa !82
  store ptr %20, ptr %4, align 8, !tbaa !17
  br label %21

21:                                               ; preds = %35, %17
  %22 = load ptr, ptr %4, align 8, !tbaa !17
  %23 = load ptr, ptr %3, align 8, !tbaa !17
  %24 = icmp ne ptr %22, %23
  br i1 %24, label %25, label %39

25:                                               ; preds = %21
  %26 = load ptr, ptr %4, align 8, !tbaa !17
  %27 = call i32 @Synchronize_Field(ptr noundef %26)
  store i32 %27, ptr %6, align 4, !tbaa !35
  %28 = icmp ne i32 %27, 0
  br i1 %28, label %29, label %34

29:                                               ; preds = %25
  %30 = load i32, ptr %5, align 4, !tbaa !35
  %31 = icmp eq i32 %30, 0
  br i1 %31, label %32, label %34

32:                                               ; preds = %29
  %33 = load i32, ptr %6, align 4, !tbaa !35
  store i32 %33, ptr %5, align 4, !tbaa !35
  br label %34

34:                                               ; preds = %32, %29, %25
  br label %35

35:                                               ; preds = %34
  %36 = load ptr, ptr %4, align 8, !tbaa !17
  %37 = getelementptr inbounds nuw %struct.fieldnode, ptr %36, i32 0, i32 19
  %38 = load ptr, ptr %37, align 8, !tbaa !82
  store ptr %38, ptr %4, align 8, !tbaa !17
  br label %21, !llvm.loop !83

39:                                               ; preds = %21
  %40 = load i32, ptr %5, align 4, !tbaa !35
  store i32 %40, ptr %2, align 4
  store i32 1, ptr %7, align 4
  br label %41

41:                                               ; preds = %39, %16, %10
  call void @llvm.lifetime.end.p0(i64 4, ptr %6) #9
  call void @llvm.lifetime.end.p0(i64 4, ptr %5) #9
  call void @llvm.lifetime.end.p0(i64 8, ptr %4) #9
  %42 = load i32, ptr %2, align 4
  ret i32 %42
}

; Function Attrs: nounwind uwtable
define dso_local zeroext i1 @_nc_Internal_Validation(ptr noundef %0) #0 {
  %2 = alloca i1, align 1
  %3 = alloca ptr, align 8
  %4 = alloca ptr, align 8
  %5 = alloca i32, align 4
  store ptr %0, ptr %3, align 8, !tbaa !4
  call void @llvm.lifetime.start.p0(i64 8, ptr %4) #9
  %6 = load ptr, ptr %3, align 8, !tbaa !4
  %7 = getelementptr inbounds nuw %struct.formnode, ptr %6, i32 0, i32 15
  %8 = load ptr, ptr %7, align 8, !tbaa !16
  store ptr %8, ptr %4, align 8, !tbaa !17
  %9 = load ptr, ptr %3, align 8, !tbaa !4
  call void @Synchronize_Buffer(ptr noundef %9)
  %10 = load ptr, ptr %3, align 8, !tbaa !4
  %11 = getelementptr inbounds nuw %struct.formnode, ptr %10, i32 0, i32 0
  %12 = load i16, ptr %11, align 8, !tbaa !47
  %13 = zext i16 %12 to i32
  %14 = and i32 %13, 32
  %15 = icmp ne i32 %14, 0
  br i1 %15, label %22, label %16

16:                                               ; preds = %1
  %17 = load ptr, ptr %4, align 8, !tbaa !17
  %18 = getelementptr inbounds nuw %struct.fieldnode, ptr %17, i32 0, i32 16
  %19 = load i32, ptr %18, align 8, !tbaa !23
  %20 = and i32 %19, 256
  %21 = icmp ne i32 %20, 0
  br i1 %21, label %47, label %22

22:                                               ; preds = %16, %1
  %23 = load ptr, ptr %4, align 8, !tbaa !17
  %24 = getelementptr inbounds nuw %struct.fieldnode, ptr %23, i32 0, i32 21
  %25 = load ptr, ptr %24, align 8, !tbaa !67
  %26 = load ptr, ptr %4, align 8, !tbaa !17
  %27 = load ptr, ptr %4, align 8, !tbaa !17
  %28 = getelementptr inbounds nuw %struct.fieldnode, ptr %27, i32 0, i32 22
  %29 = load ptr, ptr %28, align 8, !tbaa !68
  %30 = call zeroext i1 @Check_Field(ptr noundef %25, ptr noundef %26, ptr noundef %29)
  br i1 %30, label %32, label %31

31:                                               ; preds = %22
  store i1 false, ptr %2, align 1
  store i32 1, ptr %5, align 4
  br label %48

32:                                               ; preds = %22
  %33 = load ptr, ptr %3, align 8, !tbaa !4
  %34 = getelementptr inbounds nuw %struct.formnode, ptr %33, i32 0, i32 0
  %35 = load i16, ptr %34, align 8, !tbaa !47
  %36 = zext i16 %35 to i32
  %37 = and i32 %36, -33
  %38 = trunc i32 %37 to i16
  store i16 %38, ptr %34, align 8, !tbaa !47
  %39 = load ptr, ptr %4, align 8, !tbaa !17
  %40 = getelementptr inbounds nuw %struct.fieldnode, ptr %39, i32 0, i32 0
  %41 = load i16, ptr %40, align 8, !tbaa !37
  %42 = zext i16 %41 to i32
  %43 = or i32 %42, 1
  %44 = trunc i32 %43 to i16
  store i16 %44, ptr %40, align 8, !tbaa !37
  %45 = load ptr, ptr %4, align 8, !tbaa !17
  %46 = call i32 @Synchronize_Linked_Fields(ptr noundef %45)
  br label %47

47:                                               ; preds = %32, %16
  store i1 true, ptr %2, align 1
  store i32 1, ptr %5, align 4
  br label %48

48:                                               ; preds = %47, %31
  call void @llvm.lifetime.end.p0(i64 8, ptr %4) #9
  %49 = load i1, ptr %2, align 1
  ret i1 %49
}

; Function Attrs: nounwind uwtable
define internal i32 @Page_Navigation(ptr noundef %0, ptr noundef %1) #0 {
  %3 = alloca ptr, align 8
  %4 = alloca ptr, align 8
  %5 = alloca i32, align 4
  store ptr %0, ptr %3, align 8, !tbaa !95
  store ptr %1, ptr %4, align 8, !tbaa !4
  call void @llvm.lifetime.start.p0(i64 4, ptr %5) #9
  %6 = load ptr, ptr %4, align 8, !tbaa !4
  %7 = call zeroext i1 @_nc_Internal_Validation(ptr noundef %6)
  br i1 %7, label %9, label %8

8:                                                ; preds = %2
  store i32 -13, ptr %5, align 4, !tbaa !35
  br label %113

9:                                                ; preds = %2
  %10 = load ptr, ptr %4, align 8, !tbaa !4
  %11 = icmp ne ptr %10, null
  br i1 %11, label %12, label %34

12:                                               ; preds = %9
  %13 = load ptr, ptr %4, align 8, !tbaa !4
  %14 = getelementptr inbounds nuw %struct.formnode, ptr %13, i32 0, i32 21
  %15 = load ptr, ptr %14, align 8, !tbaa !103
  %16 = icmp ne ptr %15, null
  br i1 %16, label %17, label %34

17:                                               ; preds = %12
  %18 = load ptr, ptr %4, align 8, !tbaa !4
  %19 = getelementptr inbounds nuw %struct.formnode, ptr %18, i32 0, i32 0
  %20 = load i16, ptr %19, align 8, !tbaa !47
  %21 = zext i16 %20 to i32
  %22 = or i32 %21, 2
  %23 = trunc i32 %22 to i16
  store i16 %23, ptr %19, align 8, !tbaa !47
  %24 = load ptr, ptr %4, align 8, !tbaa !4
  %25 = getelementptr inbounds nuw %struct.formnode, ptr %24, i32 0, i32 21
  %26 = load ptr, ptr %25, align 8, !tbaa !103
  %27 = load ptr, ptr %4, align 8, !tbaa !4
  call void %26(ptr noundef %27)
  %28 = load ptr, ptr %4, align 8, !tbaa !4
  %29 = getelementptr inbounds nuw %struct.formnode, ptr %28, i32 0, i32 0
  %30 = load i16, ptr %29, align 8, !tbaa !47
  %31 = zext i16 %30 to i32
  %32 = and i32 %31, -3
  %33 = trunc i32 %32 to i16
  store i16 %33, ptr %29, align 8, !tbaa !47
  br label %34

34:                                               ; preds = %17, %12, %9
  %35 = load ptr, ptr %4, align 8, !tbaa !4
  %36 = icmp ne ptr %35, null
  br i1 %36, label %37, label %59

37:                                               ; preds = %34
  %38 = load ptr, ptr %4, align 8, !tbaa !4
  %39 = getelementptr inbounds nuw %struct.formnode, ptr %38, i32 0, i32 19
  %40 = load ptr, ptr %39, align 8, !tbaa !104
  %41 = icmp ne ptr %40, null
  br i1 %41, label %42, label %59

42:                                               ; preds = %37
  %43 = load ptr, ptr %4, align 8, !tbaa !4
  %44 = getelementptr inbounds nuw %struct.formnode, ptr %43, i32 0, i32 0
  %45 = load i16, ptr %44, align 8, !tbaa !47
  %46 = zext i16 %45 to i32
  %47 = or i32 %46, 2
  %48 = trunc i32 %47 to i16
  store i16 %48, ptr %44, align 8, !tbaa !47
  %49 = load ptr, ptr %4, align 8, !tbaa !4
  %50 = getelementptr inbounds nuw %struct.formnode, ptr %49, i32 0, i32 19
  %51 = load ptr, ptr %50, align 8, !tbaa !104
  %52 = load ptr, ptr %4, align 8, !tbaa !4
  call void %51(ptr noundef %52)
  %53 = load ptr, ptr %4, align 8, !tbaa !4
  %54 = getelementptr inbounds nuw %struct.formnode, ptr %53, i32 0, i32 0
  %55 = load i16, ptr %54, align 8, !tbaa !47
  %56 = zext i16 %55 to i32
  %57 = and i32 %56, -3
  %58 = trunc i32 %57 to i16
  store i16 %58, ptr %54, align 8, !tbaa !47
  br label %59

59:                                               ; preds = %42, %37, %34
  %60 = load ptr, ptr %3, align 8, !tbaa !95
  %61 = load ptr, ptr %4, align 8, !tbaa !4
  %62 = call i32 %60(ptr noundef %61)
  store i32 %62, ptr %5, align 4, !tbaa !35
  %63 = load ptr, ptr %4, align 8, !tbaa !4
  %64 = icmp ne ptr %63, null
  br i1 %64, label %65, label %87

65:                                               ; preds = %59
  %66 = load ptr, ptr %4, align 8, !tbaa !4
  %67 = getelementptr inbounds nuw %struct.formnode, ptr %66, i32 0, i32 18
  %68 = load ptr, ptr %67, align 8, !tbaa !105
  %69 = icmp ne ptr %68, null
  br i1 %69, label %70, label %87

70:                                               ; preds = %65
  %71 = load ptr, ptr %4, align 8, !tbaa !4
  %72 = getelementptr inbounds nuw %struct.formnode, ptr %71, i32 0, i32 0
  %73 = load i16, ptr %72, align 8, !tbaa !47
  %74 = zext i16 %73 to i32
  %75 = or i32 %74, 2
  %76 = trunc i32 %75 to i16
  store i16 %76, ptr %72, align 8, !tbaa !47
  %77 = load ptr, ptr %4, align 8, !tbaa !4
  %78 = getelementptr inbounds nuw %struct.formnode, ptr %77, i32 0, i32 18
  %79 = load ptr, ptr %78, align 8, !tbaa !105
  %80 = load ptr, ptr %4, align 8, !tbaa !4
  call void %79(ptr noundef %80)
  %81 = load ptr, ptr %4, align 8, !tbaa !4
  %82 = getelementptr inbounds nuw %struct.formnode, ptr %81, i32 0, i32 0
  %83 = load i16, ptr %82, align 8, !tbaa !47
  %84 = zext i16 %83 to i32
  %85 = and i32 %84, -3
  %86 = trunc i32 %85 to i16
  store i16 %86, ptr %82, align 8, !tbaa !47
  br label %87

87:                                               ; preds = %70, %65, %59
  %88 = load ptr, ptr %4, align 8, !tbaa !4
  %89 = icmp ne ptr %88, null
  br i1 %89, label %90, label %112

90:                                               ; preds = %87
  %91 = load ptr, ptr %4, align 8, !tbaa !4
  %92 = getelementptr inbounds nuw %struct.formnode, ptr %91, i32 0, i32 20
  %93 = load ptr, ptr %92, align 8, !tbaa !106
  %94 = icmp ne ptr %93, null
  br i1 %94, label %95, label %112

95:                                               ; preds = %90
  %96 = load ptr, ptr %4, align 8, !tbaa !4
  %97 = getelementptr inbounds nuw %struct.formnode, ptr %96, i32 0, i32 0
  %98 = load i16, ptr %97, align 8, !tbaa !47
  %99 = zext i16 %98 to i32
  %100 = or i32 %99, 2
  %101 = trunc i32 %100 to i16
  store i16 %101, ptr %97, align 8, !tbaa !47
  %102 = load ptr, ptr %4, align 8, !tbaa !4
  %103 = getelementptr inbounds nuw %struct.formnode, ptr %102, i32 0, i32 20
  %104 = load ptr, ptr %103, align 8, !tbaa !106
  %105 = load ptr, ptr %4, align 8, !tbaa !4
  call void %104(ptr noundef %105)
  %106 = load ptr, ptr %4, align 8, !tbaa !4
  %107 = getelementptr inbounds nuw %struct.formnode, ptr %106, i32 0, i32 0
  %108 = load i16, ptr %107, align 8, !tbaa !47
  %109 = zext i16 %108 to i32
  %110 = and i32 %109, -3
  %111 = trunc i32 %110 to i16
  store i16 %111, ptr %107, align 8, !tbaa !47
  br label %112

112:                                              ; preds = %95, %90, %87
  br label %113

113:                                              ; preds = %112, %8
  %114 = load i32, ptr %5, align 4, !tbaa !35
  call void @llvm.lifetime.end.p0(i64 4, ptr %5) #9
  ret i32 %114
}