; Function Attrs: nounwind uwtable
define internal i32 @Page_Navigation(ptr noundef readonly captures(none) %0, ptr noundef %1) #0 {
  %3 = getelementptr inbounds nuw i8, ptr %1, i64 72
  %4 = load ptr, ptr %3, align 8, !tbaa !14
  tail call fastcc void @Synchronize_Buffer(ptr noundef %1)
  %5 = load i16, ptr %1, align 8, !tbaa !45
  %6 = and i16 %5, 32
  %.not.i = icmp eq i16 %6, 0
  br i1 %.not.i, label %7, label %11

7:                                                ; preds = %2
  %8 = getelementptr inbounds nuw i8, ptr %4, i64 48
  %9 = load i32, ptr %8, align 8, !tbaa !19
  %10 = and i32 %9, 256
  %.not11.i = icmp eq i32 %10, 0
  br i1 %.not11.i, label %11, label %.loopexit

11:                                               ; preds = %7, %2
  %12 = getelementptr inbounds nuw i8, ptr %4, i64 88
  %13 = load ptr, ptr %12, align 8, !tbaa !63
  %14 = getelementptr inbounds nuw i8, ptr %4, i64 96
  %15 = load ptr, ptr %14, align 8, !tbaa !64
  %16 = tail call fastcc zeroext i1 @Check_Field(ptr noundef %13, ptr noundef %4, ptr noundef %15)
  br i1 %16, label %17, label %.critedge33

17:                                               ; preds = %11
  %18 = load i16, ptr %1, align 8, !tbaa !45
  %19 = and i16 %18, -33
  store i16 %19, ptr %1, align 8, !tbaa !45
  %20 = load i16, ptr %4, align 8, !tbaa !34
  %21 = or i16 %20, 1
  store i16 %21, ptr %4, align 8, !tbaa !34
  %22 = getelementptr inbounds nuw i8, ptr %4, i64 72
  %23 = load ptr, ptr %22, align 8, !tbaa !65
  %.not16.i.i = icmp eq ptr %23, null
  %.not1718.i.i = icmp eq ptr %23, %4
  %or.cond.i = select i1 %.not16.i.i, i1 true, i1 %.not1718.i.i
  br i1 %or.cond.i, label %.loopexit, label %.lr.ph.i.i

.lr.ph.i.i:                                       ; preds = %17, %.lr.ph.i.i
  %.01219.i.i = phi ptr [ %26, %.lr.ph.i.i ], [ %23, %17 ]
  %24 = tail call fastcc i32 @Synchronize_Field(ptr noundef %.01219.i.i)
  %25 = getelementptr inbounds nuw i8, ptr %.01219.i.i, i64 72
  %26 = load ptr, ptr %25, align 8, !tbaa !65
  %.not17.i.i = icmp eq ptr %26, %4
  br i1 %.not17.i.i, label %.loopexit, label %.lr.ph.i.i, !llvm.loop !66

.loopexit:                                        ; preds = %.lr.ph.i.i, %17, %7
  %27 = getelementptr inbounds nuw i8, ptr %1, i64 120
  %28 = load ptr, ptr %27, align 8, !tbaa !96
  %.not28 = icmp eq ptr %28, null
  br i1 %.not28, label %34, label %29

29:                                               ; preds = %.loopexit
  %30 = load i16, ptr %1, align 8, !tbaa !45
  %31 = or i16 %30, 2
  store i16 %31, ptr %1, align 8, !tbaa !45
  tail call void %28(ptr noundef nonnull %1) #13
  %32 = load i16, ptr %1, align 8, !tbaa !45
  %33 = and i16 %32, -3
  store i16 %33, ptr %1, align 8, !tbaa !45
  br label %34

34:                                               ; preds = %.loopexit, %29
  %35 = getelementptr inbounds nuw i8, ptr %1, i64 104
  %36 = load ptr, ptr %35, align 8, !tbaa !97
  %.not29 = icmp eq ptr %36, null
  br i1 %.not29, label %42, label %37

37:                                               ; preds = %34
  %38 = load i16, ptr %1, align 8, !tbaa !45
  %39 = or i16 %38, 2
  store i16 %39, ptr %1, align 8, !tbaa !45
  tail call void %36(ptr noundef nonnull %1) #13
  %40 = load i16, ptr %1, align 8, !tbaa !45
  %41 = and i16 %40, -3
  store i16 %41, ptr %1, align 8, !tbaa !45
  br label %42

42:                                               ; preds = %34, %37
  %43 = tail call i32 %0(ptr noundef nonnull %1) #13
  %44 = getelementptr inbounds nuw i8, ptr %1, i64 96
  %45 = load ptr, ptr %44, align 8, !tbaa !98
  %.not30 = icmp eq ptr %45, null
  br i1 %.not30, label %51, label %46

46:                                               ; preds = %42
  %47 = load i16, ptr %1, align 8, !tbaa !45
  %48 = or i16 %47, 2
  store i16 %48, ptr %1, align 8, !tbaa !45
  tail call void %45(ptr noundef nonnull %1) #13
  %49 = load i16, ptr %1, align 8, !tbaa !45
  %50 = and i16 %49, -3
  store i16 %50, ptr %1, align 8, !tbaa !45
  br label %51

51:                                               ; preds = %42, %46
  %52 = getelementptr inbounds nuw i8, ptr %1, i64 112
  %53 = load ptr, ptr %52, align 8, !tbaa !99
  %.not31 = icmp eq ptr %53, null
  br i1 %.not31, label %.critedge33, label %54

54:                                               ; preds = %51
  %55 = load i16, ptr %1, align 8, !tbaa !45
  %56 = or i16 %55, 2
  store i16 %56, ptr %1, align 8, !tbaa !45
  tail call void %53(ptr noundef nonnull %1) #13
  %57 = load i16, ptr %1, align 8, !tbaa !45
  %58 = and i16 %57, -3
  store i16 %58, ptr %1, align 8, !tbaa !45
  br label %.critedge33

.critedge33:                                      ; preds = %11, %51, %54
  %.0 = phi i32 [ %43, %54 ], [ %43, %51 ], [ -13, %11 ]
  ret i32 %.0
}